target datalayout = "e-m:e-p270:32:32-p271:32:32-p272:64:64-i64:64-i128:128-f80:128-n8:16:32:64-S128"
target triple = "x86_64-pc-linux-gnu"

%struct.fdt_header = type { i32, i32, i32, i32, i32, i32, i32, i32, i32, i32 }

; Function Attrs: inlinehint nounwind uwtable
define internal i32 @fdt32_ld(ptr noundef %0) #2 {
  %2 = alloca ptr, align 8
  %3 = alloca ptr, align 8
  store ptr %0, ptr %2, align 8, !tbaa !9
  call void @llvm.lifetime.start.p0(i64 8, ptr %3) #5
  %4 = load ptr, ptr %2, align 8, !tbaa !9
  store ptr %4, ptr %3, align 8, !tbaa !11
  %5 = load ptr, ptr %3, align 8, !tbaa !11
  %6 = getelementptr inbounds i8, ptr %5, i64 0
  %7 = load i8, ptr %6, align 1, !tbaa !13
  %8 = zext i8 %7 to i32
  %9 = shl i32 %8, 24
  %10 = load ptr, ptr %3, align 8, !tbaa !11
  %11 = getelementptr inbounds i8, ptr %10, i64 1
  %12 = load i8, ptr %11, align 1, !tbaa !13
  %13 = zext i8 %12 to i32
  %14 = shl i32 %13, 16
  %15 = or i32 %9, %14
  %16 = load ptr, ptr %3, align 8, !tbaa !11
  %17 = getelementptr inbounds i8, ptr %16, i64 2
  %18 = load i8, ptr %17, align 1, !tbaa !13
  %19 = zext i8 %18 to i32
  %20 = shl i32 %19, 8
  %21 = or i32 %15, %20
  %22 = load ptr, ptr %3, align 8, !tbaa !11
  %23 = getelementptr inbounds i8, ptr %22, i64 3
  %24 = load i8, ptr %23, align 1, !tbaa !13
  %25 = zext i8 %24 to i32
  %26 = or i32 %21, %25
  call void @llvm.lifetime.end.p0(i64 8, ptr %3) #5
  ret i32 %26
}

; Function Attrs: inlinehint nounwind uwtable
define internal i32 @fdt32_to_cpu(i32 noundef %0) #2 {
  %2 = alloca i32, align 4
  store i32 %0, ptr %2, align 4, !tbaa !7
  %3 = getelementptr inbounds i8, ptr %2, i64 0
  %4 = load i8, ptr %3, align 4, !tbaa !13
  %5 = zext i8 %4 to i64
  %6 = shl i64 %5, 24
  %7 = getelementptr inbounds i8, ptr %2, i64 1
  %8 = load i8, ptr %7, align 1, !tbaa !13
  %9 = zext i8 %8 to i64
  %10 = shl i64 %9, 16
  %11 = or i64 %6, %10
  %12 = getelementptr inbounds i8, ptr %2, i64 2
  %13 = load i8, ptr %12, align 2, !tbaa !13
  %14 = zext i8 %13 to i64
  %15 = shl i64 %14, 8
  %16 = or i64 %11, %15
  %17 = getelementptr inbounds i8, ptr %2, i64 3
  %18 = load i8, ptr %17, align 1, !tbaa !13
  %19 = zext i8 %18 to i64
  %20 = or i64 %16, %19
  %21 = trunc i64 %20 to i32
  ret i32 %21
}

; Function Attrs: nounwind uwtable
define i32 @fdt_next_tag(ptr noundef %0, i32 noundef %1, ptr noundef %2) #0 {
  %4 = alloca i32, align 4
  %5 = alloca ptr, align 8
  %6 = alloca i32, align 4
  %7 = alloca ptr, align 8
  %8 = alloca ptr, align 8
  %9 = alloca ptr, align 8
  %10 = alloca i32, align 4
  %11 = alloca i32, align 4
  %12 = alloca ptr, align 8
  %13 = alloca i32, align 4
  store ptr %0, ptr %5, align 8, !tbaa !3
  store i32 %1, ptr %6, align 4, !tbaa !7
  store ptr %2, ptr %7, align 8, !tbaa !9
  call void @llvm.lifetime.start.p0(i64 8, ptr %8) #5
  call void @llvm.lifetime.start.p0(i64 8, ptr %9) #5
  call void @llvm.lifetime.start.p0(i64 4, ptr %10) #5
  call void @llvm.lifetime.start.p0(i64 4, ptr %11) #5
  %14 = load i32, ptr %6, align 4, !tbaa !7
  store i32 %14, ptr %11, align 4, !tbaa !7
  call void @llvm.lifetime.start.p0(i64 8, ptr %12) #5
  %15 = load ptr, ptr %7, align 8, !tbaa !9
  store i32 -8, ptr %15, align 4, !tbaa !7
  %16 = load ptr, ptr %5, align 8, !tbaa !3
  %17 = load i32, ptr %11, align 4, !tbaa !7
  %18 = call ptr @fdt_offset_ptr(ptr noundef %16, i32 noundef %17, i32 noundef 4)
  store ptr %18, ptr %8, align 8, !tbaa !9
  %19 = load ptr, ptr %8, align 8, !tbaa !9
  %20 = icmp ne ptr %19, null
  br i1 %20, label %22, label %21

21:                                               ; preds = %3
  store i32 9, ptr %4, align 4
  store i32 1, ptr %13, align 4
  br label %111

22:                                               ; preds = %3
  %23 = load ptr, ptr %8, align 8, !tbaa !9
  %24 = load i32, ptr %23, align 4, !tbaa !7
  %25 = call i32 @fdt32_to_cpu(i32 noundef %24)
  store i32 %25, ptr %10, align 4, !tbaa !7
  %26 = load i32, ptr %11, align 4, !tbaa !7
  %27 = sext i32 %26 to i64
  %28 = add i64 %27, 4
  %29 = trunc i64 %28 to i32
  store i32 %29, ptr %11, align 4, !tbaa !7
  %30 = load ptr, ptr %7, align 8, !tbaa !9
  store i32 -11, ptr %30, align 4, !tbaa !7
  %31 = load i32, ptr %10, align 4, !tbaa !7
  switch i32 %31, label %92 [
    i32 1, label %32
    i32 3, label %53
    i32 9, label %91
    i32 2, label %91
    i32 4, label %91
  ]

32:                                               ; preds = %22
  br label %33

33:                                               ; preds = %46, %32
  %34 = load ptr, ptr %5, align 8, !tbaa !3
  %35 = load i32, ptr %11, align 4, !tbaa !7
  %36 = add nsw i32 %35, 1
  store i32 %36, ptr %11, align 4, !tbaa !7
  %37 = call ptr @fdt_offset_ptr(ptr noundef %34, i32 noundef %35, i32 noundef 1)
  store ptr %37, ptr %12, align 8, !tbaa !11
  br label %38

38:                                               ; preds = %33
  %39 = load ptr, ptr %12, align 8, !tbaa !11
  %40 = icmp ne ptr %39, null
  br i1 %40, label %41, label %46

41:                                               ; preds = %38
  %42 = load ptr, ptr %12, align 8, !tbaa !11
  %43 = load i8, ptr %42, align 1, !tbaa !13
  %44 = sext i8 %43 to i32
  %45 = icmp ne i32 %44, 0
  br label %46

46:                                               ; preds = %41, %38
  %47 = phi i1 [ false, %38 ], [ %45, %41 ]
  br i1 %47, label %33, label %48, !llvm.loop !16

48:                                               ; preds = %46
  %49 = load ptr, ptr %12, align 8, !tbaa !11
  %50 = icmp ne ptr %49, null
  br i1 %50, label %52, label %51

51:                                               ; preds = %48
  store i32 9, ptr %4, align 4
  store i32 1, ptr %13, align 4
  br label %111

52:                                               ; preds = %48
  br label %93

53:                                               ; preds = %22
  %54 = load ptr, ptr %5, align 8, !tbaa !3
  %55 = load i32, ptr %11, align 4, !tbaa !7
  %56 = call ptr @fdt_offset_ptr(ptr noundef %54, i32 noundef %55, i32 noundef 4)
  store ptr %56, ptr %9, align 8, !tbaa !9
  %57 = load ptr, ptr %9, align 8, !tbaa !9
  %58 = icmp ne ptr %57, null
  br i1 %58, label %60, label %59

59:                                               ; preds = %53
  store i32 9, ptr %4, align 4
  store i32 1, ptr %13, align 4
  br label %111

60:                                               ; preds = %53
  %61 = load ptr, ptr %9, align 8, !tbaa !9
  %62 = load i32, ptr %61, align 4, !tbaa !7
  %63 = call i32 @fdt32_to_cpu(i32 noundef %62)
  %64 = zext i32 %63 to i64
  %65 = add i64 8, %64
  %66 = load i32, ptr %11, align 4, !tbaa !7
  %67 = sext i32 %66 to i64
  %68 = add i64 %67, %65
  %69 = trunc i64 %68 to i32
  store i32 %69, ptr %11, align 4, !tbaa !7
  %70 = load ptr, ptr %5, align 8, !tbaa !3
  %71 = getelementptr inbounds nuw %struct.fdt_header, ptr %70, i32 0, i32 5
  %72 = call i32 @fdt32_ld(ptr noundef %71)
  %73 = icmp ult i32 %72, 16
  br i1 %73, label %74, label %90

74:                                               ; preds = %60
  %75 = load ptr, ptr %9, align 8, !tbaa !9
  %76 = load i32, ptr %75, align 4, !tbaa !7
  %77 = call i32 @fdt32_to_cpu(i32 noundef %76)
  %78 = icmp uge i32 %77, 8
  br i1 %78, label %79, label %90

79:                                               ; preds = %74
  %80 = load i32, ptr %11, align 4, !tbaa !7
  %81 = load ptr, ptr %9, align 8, !tbaa !9
  %82 = load i32, ptr %81, align 4, !tbaa !7
  %83 = call i32 @fdt32_to_cpu(i32 noundef %82)
  %84 = sub i32 %80, %83
  %85 = urem i32 %84, 8
  %86 = icmp ne i32 %85, 0
  br i1 %86, label %87, label %90

87:                                               ; preds = %79
  %88 = load i32, ptr %11, align 4, !tbaa !7
  %89 = add nsw i32 %88, 4
  store i32 %89, ptr %11, align 4, !tbaa !7
  br label %90

90:                                               ; preds = %87, %79, %74, %60
  br label %93

91:                                               ; preds = %22, %22, %22
  br label %93

92:                                               ; preds = %22
  store i32 9, ptr %4, align 4
  store i32 1, ptr %13, align 4
  br label %111

93:                                               ; preds = %91, %90, %52
  %94 = load ptr, ptr %5, align 8, !tbaa !3
  %95 = load i32, ptr %6, align 4, !tbaa !7
  %96 = load i32, ptr %11, align 4, !tbaa !7
  %97 = load i32, ptr %6, align 4, !tbaa !7
  %98 = sub nsw i32 %96, %97
  %99 = call ptr @fdt_offset_ptr(ptr noundef %94, i32 noundef %95, i32 noundef %98)
  %100 = icmp ne ptr %99, null
  br i1 %100, label %102, label %101

101:                                              ; preds = %93
  store i32 9, ptr %4, align 4
  store i32 1, ptr %13, align 4
  br label %111

102:                                              ; preds = %93
  %103 = load i32, ptr %11, align 4, !tbaa !7
  %104 = sext i32 %103 to i64
  %105 = add i64 %104, 4
  %106 = sub i64 %105, 1
  %107 = and i64 %106, -4
  %108 = trunc i64 %107 to i32
  %109 = load ptr, ptr %7, align 8, !tbaa !9
  store i32 %108, ptr %109, align 4, !tbaa !7
  %110 = load i32, ptr %10, align 4, !tbaa !7
  store i32 %110, ptr %4, align 4
  store i32 1, ptr %13, align 4
  br label %111

111:                                              ; preds = %102, %101, %92, %59, %51, %21
  call void @llvm.lifetime.end.p0(i64 8, ptr %12) #5
  call void @llvm.lifetime.end.p0(i64 4, ptr %11) #5
  call void @llvm.lifetime.end.p0(i64 4, ptr %10) #5
  call void @llvm.lifetime.end.p0(i64 8, ptr %9) #5
  call void @llvm.lifetime.end.p0(i64 8, ptr %8) #5
  %112 = load i32, ptr %4, align 4
  ret i32 %112
}